target datalayout = "e-m:e-p270:32:32-p271:32:32-p272:64:64-i64:64-i128:128-f80:128-n8:16:32:64-S128"
target triple = "x86_64-pc-linux-gnu"

%struct.VLC = type { i32, ptr, i32, i32 }
%struct.VLCElem = type { %union.anon.1 }
%union.anon.1 = type { %struct.anon }
%struct.anon = type { i16, i16 }

@tscc2_init_vlc.vlc_buf = internal global [15442 x %struct.VLCElem] zeroinitializer, align 16

; Function Attrs: cold nounwind optsize uwtable
define internal void @tscc2_init_vlc(ptr noundef %0, ptr noundef %1, i32 noundef %2, ptr noundef %3, ptr noundef %4, i32 noundef %5) #0 {
  %7 = alloca ptr, align 8
  %8 = alloca ptr, align 8
  %9 = alloca i32, align 4
  %10 = alloca ptr, align 8
  %11 = alloca ptr, align 8
  %12 = alloca i32, align 4
  store ptr %0, ptr %7, align 8, !tbaa !61
  store ptr %1, ptr %8, align 8, !tbaa !43
  store i32 %2, ptr %9, align 4, !tbaa !50
  store ptr %3, ptr %10, align 8, !tbaa !48
  store ptr %4, ptr %11, align 8, !tbaa !63
  store i32 %5, ptr %12, align 4, !tbaa !50
  %13 = load ptr, ptr %8, align 8, !tbaa !43
  %14 = load i32, ptr %13, align 4, !tbaa !50
  %15 = sext i32 %14 to i64
  %16 = getelementptr inbounds [15442 x %struct.VLCElem], ptr @tscc2_init_vlc.vlc_buf, i64 0, i64 %15
  %17 = load ptr, ptr %7, align 8, !tbaa !61
  %18 = getelementptr inbounds nuw %struct.VLC, ptr %17, i32 0, i32 1
  store ptr %16, ptr %18, align 8, !tbaa !64
  %19 = load ptr, ptr %8, align 8, !tbaa !43
  %20 = load i32, ptr %19, align 4, !tbaa !50
  %21 = sext i32 %20 to i64
  %22 = sub i64 15442, %21
  %23 = trunc i64 %22 to i32
  %24 = load ptr, ptr %7, align 8, !tbaa !61
  %25 = getelementptr inbounds nuw %struct.VLC, ptr %24, i32 0, i32 3
  store i32 %23, ptr %25, align 4, !tbaa !67
  %26 = load ptr, ptr %7, align 8, !tbaa !61
  %27 = load i32, ptr %9, align 4, !tbaa !50
  %28 = load ptr, ptr %10, align 8, !tbaa !48
  %29 = load ptr, ptr %11, align 8, !tbaa !63
  %30 = load i32, ptr %12, align 4, !tbaa !50
  %31 = load i32, ptr %12, align 4, !tbaa !50
  %32 = call i32 @ff_vlc_init_from_lengths(ptr noundef %26, i32 noundef 9, i32 noundef %27, ptr noundef %28, i32 noundef 1, ptr noundef %29, i32 noundef %30, i32 noundef %31, i32 noundef 0, i32 noundef 11, ptr noundef null)
  %33 = load ptr, ptr %7, align 8, !tbaa !61
  %34 = getelementptr inbounds nuw %struct.VLC, ptr %33, i32 0, i32 2
  %35 = load i32, ptr %34, align 8, !tbaa !68
  %36 = load ptr, ptr %8, align 8, !tbaa !43
  %37 = load i32, ptr %36, align 4, !tbaa !50
  %38 = add nsw i32 %37, %35
  store i32 %38, ptr %36, align 4, !tbaa !50
  ret void
}