; Function Attrs: cold nounwind optsize uwtable
define internal fastcc void @tscc2_init_vlc(ptr noundef initializes((8, 16), (20, 24)) %0, ptr noundef nonnull captures(none) %1, i32 noundef %2, ptr noundef %3, ptr noundef %4, i32 noundef range(i32 1, 3) %5) unnamed_addr #0 {
  %7 = load i32, ptr %1, align 4, !tbaa !43
  %8 = sext i32 %7 to i64
  %9 = getelementptr inbounds [15442 x %struct.VLCElem], ptr @tscc2_init_vlc.vlc_buf, i64 0, i64 %8
  %10 = getelementptr inbounds nuw i8, ptr %0, i64 8
  store ptr %9, ptr %10, align 8, !tbaa !59
  %11 = sub i32 15442, %7
  %12 = getelementptr inbounds nuw i8, ptr %0, i64 20
  store i32 %11, ptr %12, align 4, !tbaa !71
  %13 = tail call i32 @ff_vlc_init_from_lengths(ptr noundef %0, i32 noundef 9, i32 noundef %2, ptr noundef %3, i32 noundef 1, ptr noundef %4, i32 noundef %5, i32 noundef %5, i32 noundef 0, i32 noundef 11, ptr noundef null) #7
  %14 = getelementptr inbounds nuw i8, ptr %0, i64 16
  %15 = load i32, ptr %14, align 8, !tbaa !72
  %16 = load i32, ptr %1, align 4, !tbaa !43
  %17 = add nsw i32 %16, %15
  store i32 %17, ptr %1, align 4, !tbaa !43
  ret void
}